Certificate:
    Data:
        Version: 3 (0x2)
        Serial Number: 2 (0x2)
        Signature Algorithm: sha1WithRSAEncryption
        Issuer: C=CN, ST=BJ, L=BJ, O=tutusw, CN=tutusw CA/emailAddress=tutusw@163.com
        Validity
            Not Before: Jun 12 07:16:32 2011 GMT
            Not After : Jun  9 07:16:32 2021 GMT
        Subject: C=CN, ST=BJ, L=BJ, O=tutusw, CN=client1/name=user1/emailAddress=tutusw@163.com
        Subject Public Key Info:
            Public Key Algorithm: rsaEncryption
            RSA Public Key: (1024 bit)
                Modulus (1024 bit):
                    00:e0:25:ab:47:d6:c8:68:3e:63:fc:0c:fe:fb:a4:
                    70:67:25:61:38:1f:87:1d:65:da:9e:2e:95:38:b8:
                    e7:de:97:7b:c2:53:c7:18:3f:fa:40:28:8e:54:b5:
                    0d:ad:e7:ad:51:54:a0:84:c4:11:f9:e4:44:b1:c3:
                    05:f3:73:a1:4a:d9:79:53:a0:35:ca:fa:77:dc:d3:
                    96:25:68:48:60:4a:18:f7:42:e4:42:b9:f3:36:4e:
                    e2:29:b3:2c:8a:d4:90:8e:89:e9:7b:86:da:06:05:
                    f0:73:40:8e:5d:dd:1f:3d:c9:4e:a7:03:f2:c9:76:
                    02:6e:91:03:b6:69:f7:a2:0d
                Exponent: 65537 (0x10001)
        X509v3 extensions:
            X509v3 Basic Constraints: 
                CA:FALSE
            Netscape Comment: 
                Easy-RSA Generated Certificate
            X509v3 Subject Key Identifier: 
                DE:BC:AA:EF:DD:16:23:A3:A1:3E:68:08:42:63:F3:52:FD:B5:72:D1
            X509v3 Authority Key Identifier: 
                keyid:EC:C7:D9:E4:9D:8B:95:F4:34:6B:01:58:39:1E:B2:1E:C5:D3:C2:6F
                DirName:/C=CN/ST=BJ/L=BJ/O=tutusw/CN=tutusw CA/emailAddress=tutusw@163.com
                serial:89:9A:B0:38:91:F5:44:C1

            X509v3 Extended Key Usage: 
                TLS Web Client Authentication
            X509v3 Key Usage: 
                Digital Signature
    Signature Algorithm: sha1WithRSAEncryption
        a1:16:56:fd:25:28:b2:13:8d:59:b8:99:68:33:fb:a9:76:2b:
        07:af:24:ce:93:c5:c6:b9:fb:e4:64:2a:54:5a:2b:82:a7:a4:
        d9:53:b6:bd:6f:87:68:32:6d:05:ec:fa:bd:9b:7a:47:e4:3f:
        8d:c1:7f:01:0e:f4:eb:8d:f4:1a:8a:d7:0e:d4:0d:26:fd:ec:
        40:af:f1:d4:11:50:37:ae:12:47:07:76:12:3e:90:f4:0c:e2:
        4a:77:40:45:f6:02:71:ef:63:50:03:4f:39:22:dd:4d:eb:0d:
        a5:d3:ba:b0:2a:40:2a:27:89:ad:56:fa:cc:46:16:32:bf:65:
        65:0f
-----BEGIN CERTIFICATE-----
MIIDezCCAuSgAwIBAgIBAjANBgkqhkiG9w0BAQUFADBrMQswCQYDVQQGEwJDTjEL
MAkGA1UECBMCQkoxCzAJBgNVBAcTAkJKMQ8wDQYDVQQKEwZ0dXR1c3cxEjAQBgNV
BAMTCXR1dHVzdyBDQTEdMBsGCSqGSIb3DQEJARYOdHV0dXN3QDE2My5jb20wHhcN
MTEwNjEyMDcxNjMyWhcNMjEwNjA5MDcxNjMyWjB5MQswCQYDVQQGEwJDTjELMAkG
A1UECBMCQkoxCzAJBgNVBAcTAkJKMQ8wDQYDVQQKEwZ0dXR1c3cxEDAOBgNVBAMT
B2NsaWVudDExDjAMBgNVBCkTBXVzZXIxMR0wGwYJKoZIhvcNAQkBFg50dXR1c3dA
MTYzLmNvbTCBnzANBgkqhkiG9w0BAQEFAAOBjQAwgYkCgYEA4CWrR9bIaD5j/Az+
+6RwZyVhOB+HHWXani6VOLjn3pd7wlPHGD/6QCiOVLUNreetUVSghMQR+eREscMF
83OhStl5U6A1yvp33NOWJWhIYEoY90LkQrnzNk7iKbMsitSQjonpe4baBgXwc0CO
Xd0fPclOpwPyyXYCbpEDtmn3og0CAwEAAaOCAR8wggEbMAkGA1UdEwQCMAAwLQYJ
YIZIAYb4QgENBCAWHkVhc3ktUlNBIEdlbmVyYXRlZCBDZXJ0aWZpY2F0ZTAdBgNV
HQ4EFgQU3ryq790WI6OhPmgIQmPzUv21ctEwgZ0GA1UdIwSBlTCBkoAU7MfZ5J2L
lfQ0awFYOR6yHsXTwm+hb6RtMGsxCzAJBgNVBAYTAkNOMQswCQYDVQQIEwJCSjEL
MAkGA1UEBxMCQkoxDzANBgNVBAoTBnR1dHVzdzESMBAGA1UEAxMJdHV0dXN3IENB
MR0wGwYJKoZIhvcNAQkBFg50dXR1c3dAMTYzLmNvbYIJAImasDiR9UTBMBMGA1Ud
JQQMMAoGCCsGAQUFBwMCMAsGA1UdDwQEAwIHgDANBgkqhkiG9w0BAQUFAAOBgQCh
Flb9JSiyE41ZuJloM/updisHryTOk8XGufvkZCpUWiuCp6TZU7a9b4doMm0F7Pq9
m3pH5D+NwX8BDvTrjfQaitcO1A0m/exAr/HUEVA3rhJHB3YSPpD0DOJKd0BF9gJx
72NQA085It1N6w2l07qwKkAqJ4mtVvrMRhYyv2VlDw==
-----END CERTIFICATE-----
